target datalayout = "e-m:e-p270:32:32-p271:32:32-p272:64:64-i64:64-i128:128-f80:128-n8:16:32:64-S128"
target triple = "x86_64-unknown-linux-gnu"

%"struct.icu_75::RegularExpression" = type <{ i32, [4 x i8], ptr, ptr, ptr, i32, [4 x i8], ptr, ptr, i32, i8, [3 x i8] }>
%struct.UText = type { i32, i32, i32, i32, i64, i32, i32, i64, i32, i32, ptr, ptr, ptr, ptr, ptr, ptr, ptr, ptr, i64, i32, i32, i64, i32, i32 }

@_ZN6icu_7517RegularExpressionC1Ev = unnamed_addr alias void (ptr), ptr @_ZN6icu_7517RegularExpressionC2Ev
@_ZN6icu_7517RegularExpressionD1Ev = unnamed_addr alias void (ptr), ptr @_ZN6icu_7517RegularExpressionD2Ev

; Function Attrs: noreturn nounwind uwtable
define linkonce_odr hidden void @__clang_call_terminate(ptr noundef %0) #2 comdat {
  %2 = call ptr @__cxa_begin_catch(ptr %0) #7
  call void @_ZSt9terminatev() #8
  unreachable
}

; Function Attrs: mustprogress nounwind uwtable
define linkonce_odr noundef i32 @_ZStanSt12memory_orderSt23__memory_order_modifier(i32 noundef %__m, i32 noundef %__mod) #0 comdat {
entry:
  %__m.addr = alloca i32, align 4
  %__mod.addr = alloca i32, align 4
  store i32 %__m, ptr %__m.addr, align 4
  store i32 %__mod, ptr %__mod.addr, align 4
  %0 = load i32, ptr %__m.addr, align 4
  %1 = load i32, ptr %__mod.addr, align 4
  %and = and i32 %0, %1
  ret i32 %and
}

; Function Attrs: mustprogress nounwind uwtable
define internal noundef signext i8 @_ZL9U_SUCCESS10UErrorCode(i32 noundef %code) #0 {
entry:
  %code.addr = alloca i32, align 4
  store i32 %code, ptr %code.addr, align 4
  %0 = load i32, ptr %code.addr, align 4
  %cmp = icmp sle i32 %0, 0
  %conv = zext i1 %cmp to i8
  ret i8 %conv
}

; Function Attrs: mustprogress nounwind uwtable
define linkonce_odr noundef i32 @_ZNSt13__atomic_baseIiEaSEi(ptr noundef nonnull align 4 dereferenceable(4) %this, i32 noundef %__i) #0 comdat align 2 personality ptr @__gxx_personality_v0 {
entry:
  %this.addr.i = alloca ptr, align 8
  %__i.addr.i = alloca i32, align 4
  %__m.addr.i = alloca i32, align 4
  %__b.i = alloca i32, align 4
  %.atomictmp.i = alloca i32, align 4
  %this.addr = alloca ptr, align 8
  %__i.addr = alloca i32, align 4
  store ptr %this, ptr %this.addr, align 8
  store i32 %__i, ptr %__i.addr, align 4
  %this1 = load ptr, ptr %this.addr, align 8
  %0 = load i32, ptr %__i.addr, align 4
  store ptr %this1, ptr %this.addr.i, align 8
  store i32 %0, ptr %__i.addr.i, align 4
  store i32 5, ptr %__m.addr.i, align 4
  %this1.i = load ptr, ptr %this.addr.i, align 8
  %1 = load i32, ptr %__m.addr.i, align 4
  %call.i = invoke noundef i32 @_ZStanSt12memory_orderSt23__memory_order_modifier(i32 noundef %1, i32 noundef 65535)
          to label %invoke.cont.i unwind label %terminate.lpad.i

invoke.cont.i:                                    ; preds = %entry
  store i32 %call.i, ptr %__b.i, align 4
  %2 = load i32, ptr %__m.addr.i, align 4
  %3 = load i32, ptr %__i.addr.i, align 4
  store i32 %3, ptr %.atomictmp.i, align 4
  switch i32 %2, label %monotonic.i [
    i32 3, label %release.i
    i32 5, label %seqcst.i
  ]

monotonic.i:                                      ; preds = %invoke.cont.i
  %4 = load i32, ptr %.atomictmp.i, align 4
  store atomic i32 %4, ptr %this1.i monotonic, align 4
  br label %_ZNSt13__atomic_baseIiE5storeEiSt12memory_order.exit

release.i:                                        ; preds = %invoke.cont.i
  %5 = load i32, ptr %.atomictmp.i, align 4
  store atomic i32 %5, ptr %this1.i release, align 4
  br label %_ZNSt13__atomic_baseIiE5storeEiSt12memory_order.exit

seqcst.i:                                         ; preds = %invoke.cont.i
  %6 = load i32, ptr %.atomictmp.i, align 4
  store atomic i32 %6, ptr %this1.i seq_cst, align 4
  br label %_ZNSt13__atomic_baseIiE5storeEiSt12memory_order.exit

terminate.lpad.i:                                 ; preds = %entry
  %7 = landingpad { ptr, i32 }
          catch ptr null
  %8 = extractvalue { ptr, i32 } %7, 0
  call void @__clang_call_terminate(ptr %8) #8
  unreachable

_ZNSt13__atomic_baseIiE5storeEiSt12memory_order.exit: ; preds = %seqcst.i, %release.i, %monotonic.i
  %9 = load i32, ptr %__i.addr, align 4
  ret i32 %9
}

; Function Attrs: mustprogress nounwind uwtable
define internal noundef signext i8 @_ZL9U_FAILURE10UErrorCode(i32 noundef %code) #0 {
entry:
  %code.addr = alloca i32, align 4
  store i32 %code, ptr %code.addr, align 4
  %0 = load i32, ptr %code.addr, align 4
  %cmp = icmp sgt i32 %0, 0
  %conv = zext i1 %cmp to i8
  ret i8 %conv
}

; Function Attrs: mustprogress uwtable
define ptr @uregex_open_75(ptr noundef %pattern, i32 noundef %patternLength, i32 noundef %flags, ptr noundef %pe, ptr noundef %status) #4 personality ptr @__gxx_personality_v0 {
entry:
  %retval = alloca ptr, align 8
  %pattern.addr = alloca ptr, align 8
  %patternLength.addr = alloca i32, align 4
  %flags.addr = alloca i32, align 4
  %pe.addr = alloca ptr, align 8
  %status.addr = alloca ptr, align 8
  %actualPatLen = alloca i32, align 4
  %re = alloca ptr, align 8
  %saved-rvalue = alloca ptr, align 8
  %cleanup.cond = alloca i1, align 1
  %exn.slot = alloca ptr, align 8
  %ehselector.slot = alloca i32, align 4
  %refC = alloca ptr, align 8
  %patBuf = alloca ptr, align 8
  %patText = alloca %struct.UText, align 8
  store ptr %pattern, ptr %pattern.addr, align 8
  store i32 %patternLength, ptr %patternLength.addr, align 4
  store i32 %flags, ptr %flags.addr, align 4
  store ptr %pe, ptr %pe.addr, align 8
  store ptr %status, ptr %status.addr, align 8
  %0 = load ptr, ptr %status.addr, align 8
  %1 = load i32, ptr %0, align 4
  %call = call noundef signext i8 @_ZL9U_FAILURE10UErrorCode(i32 noundef %1)
  %tobool = icmp ne i8 %call, 0
  br i1 %tobool, label %if.then, label %if.end

if.then:                                          ; preds = %entry
  store ptr null, ptr %retval, align 8
  br label %return

if.end:                                           ; preds = %entry
  %2 = load ptr, ptr %pattern.addr, align 8
  %cmp = icmp eq ptr %2, null
  br i1 %cmp, label %if.then4, label %lor.lhs.false

lor.lhs.false:                                    ; preds = %if.end
  %3 = load i32, ptr %patternLength.addr, align 4
  %cmp1 = icmp slt i32 %3, -1
  br i1 %cmp1, label %if.then4, label %lor.lhs.false2

lor.lhs.false2:                                   ; preds = %lor.lhs.false
  %4 = load i32, ptr %patternLength.addr, align 4
  %cmp3 = icmp eq i32 %4, 0
  br i1 %cmp3, label %if.then4, label %if.end5

if.then4:                                         ; preds = %lor.lhs.false2, %lor.lhs.false, %if.end
  %5 = load ptr, ptr %status.addr, align 8
  store i32 1, ptr %5, align 4
  store ptr null, ptr %retval, align 8
  br label %return

if.end5:                                          ; preds = %lor.lhs.false2
  %6 = load i32, ptr %patternLength.addr, align 4
  store i32 %6, ptr %actualPatLen, align 4
  %7 = load i32, ptr %actualPatLen, align 4
  %cmp6 = icmp eq i32 %7, -1
  br i1 %cmp6, label %if.then7, label %if.end9

if.then7:                                         ; preds = %if.end5
  %8 = load ptr, ptr %pattern.addr, align 8
  %call8 = call i32 @u_strlen_75(ptr noundef %8)
  store i32 %call8, ptr %actualPatLen, align 4
  br label %if.end9

if.end9:                                          ; preds = %if.then7, %if.end5
  %call10 = call noundef ptr @_ZN6icu_757UMemorynwEm(i64 noundef 64) #7
  %new.isnull = icmp eq ptr %call10, null
  store i1 false, ptr %cleanup.cond, align 1
  br i1 %new.isnull, label %new.cont, label %new.notnull

new.notnull:                                      ; preds = %if.end9
  store ptr %call10, ptr %saved-rvalue, align 8
  store i1 true, ptr %cleanup.cond, align 1
  invoke void @_ZN6icu_7517RegularExpressionC1Ev(ptr noundef nonnull align 8 dereferenceable(61) %call10)
          to label %invoke.cont unwind label %lpad

invoke.cont:                                      ; preds = %new.notnull
  br label %new.cont

new.cont:                                         ; preds = %invoke.cont, %if.end9
  %9 = phi ptr [ %call10, %invoke.cont ], [ null, %if.end9 ]
  store ptr %9, ptr %re, align 8
  %call11 = call noalias ptr @uprv_malloc_75(i64 noundef 4) #9
  store ptr %call11, ptr %refC, align 8
  %10 = load i32, ptr %actualPatLen, align 4
  %add = add nsw i32 %10, 1
  %conv = sext i32 %add to i64
  %mul = mul i64 2, %conv
  %call12 = call noalias ptr @uprv_malloc_75(i64 noundef %mul) #9
  store ptr %call12, ptr %patBuf, align 8
  %11 = load ptr, ptr %re, align 8
  %cmp13 = icmp eq ptr %11, null
  br i1 %cmp13, label %if.then18, label %lor.lhs.false14

lor.lhs.false14:                                  ; preds = %new.cont
  %12 = load ptr, ptr %refC, align 8
  %cmp15 = icmp eq ptr %12, null
  br i1 %cmp15, label %if.then18, label %lor.lhs.false16

lor.lhs.false16:                                  ; preds = %lor.lhs.false14
  %13 = load ptr, ptr %patBuf, align 8
  %cmp17 = icmp eq ptr %13, null
  br i1 %cmp17, label %if.then18, label %if.end19

if.then18:                                        ; preds = %lor.lhs.false16, %lor.lhs.false14, %new.cont
  %14 = load ptr, ptr %status.addr, align 8
  store i32 7, ptr %14, align 4
  %15 = load ptr, ptr %re, align 8
  %isnull = icmp eq ptr %15, null
  br i1 %isnull, label %delete.end, label %delete.notnull

delete.notnull:                                   ; preds = %if.then18
  call void @_ZN6icu_7517RegularExpressionD1Ev(ptr noundef nonnull align 8 dereferenceable(61) %15) #7
  call void @_ZN6icu_757UMemorydlEPv(ptr noundef %15) #7
  br label %delete.end

delete.end:                                       ; preds = %delete.notnull, %if.then18
  %16 = load ptr, ptr %refC, align 8
  call void @uprv_free_75(ptr noundef %16)
  %17 = load ptr, ptr %patBuf, align 8
  call void @uprv_free_75(ptr noundef %17)
  store ptr null, ptr %retval, align 8
  br label %return

lpad:                                             ; preds = %new.notnull
  %18 = landingpad { ptr, i32 }
          cleanup
  %19 = extractvalue { ptr, i32 } %18, 0
  store ptr %19, ptr %exn.slot, align 8
  %20 = extractvalue { ptr, i32 } %18, 1
  store i32 %20, ptr %ehselector.slot, align 4
  %cleanup.is_active = load i1, ptr %cleanup.cond, align 1
  br i1 %cleanup.is_active, label %cleanup.action, label %cleanup.done

cleanup.action:                                   ; preds = %lpad
  %21 = load ptr, ptr %saved-rvalue, align 8
  call void @_ZN6icu_757UMemorydlEPv(ptr noundef %21) #7
  br label %cleanup.done

cleanup.done:                                     ; preds = %cleanup.action, %lpad
  br label %eh.resume

if.end19:                                         ; preds = %lor.lhs.false16
  %22 = load ptr, ptr %refC, align 8
  %23 = load ptr, ptr %re, align 8
  %fPatRefCount = getelementptr inbounds %"struct.icu_75::RegularExpression", ptr %23, i32 0, i32 3
  store ptr %22, ptr %fPatRefCount, align 8
  %24 = load ptr, ptr %re, align 8
  %fPatRefCount20 = getelementptr inbounds %"struct.icu_75::RegularExpression", ptr %24, i32 0, i32 3
  %25 = load ptr, ptr %fPatRefCount20, align 8
  %call21 = call noundef i32 @_ZNSt13__atomic_baseIiEaSEi(ptr noundef nonnull align 4 dereferenceable(4) %25, i32 noundef 1) #7
  %26 = load ptr, ptr %patBuf, align 8
  %27 = load ptr, ptr %re, align 8
  %fPatString = getelementptr inbounds %"struct.icu_75::RegularExpression", ptr %27, i32 0, i32 4
  store ptr %26, ptr %fPatString, align 8
  %28 = load i32, ptr %patternLength.addr, align 4
  %29 = load ptr, ptr %re, align 8
  %fPatStringLen = getelementptr inbounds %"struct.icu_75::RegularExpression", ptr %29, i32 0, i32 5
  store i32 %28, ptr %fPatStringLen, align 8
  %30 = load ptr, ptr %patBuf, align 8
  %31 = load ptr, ptr %pattern.addr, align 8
  %32 = load i32, ptr %actualPatLen, align 4
  %call22 = call ptr @u_memcpy_75(ptr noundef %30, ptr noundef %31, i32 noundef %32)
  %33 = load ptr, ptr %patBuf, align 8
  %34 = load i32, ptr %actualPatLen, align 4
  %idxprom = sext i32 %34 to i64
  %arrayidx = getelementptr inbounds i16, ptr %33, i64 %idxprom
  store i16 0, ptr %arrayidx, align 2
  call void @llvm.memset.p0.i64(ptr align 8 %patText, i8 0, i64 144, i1 false)
  %35 = getelementptr inbounds %struct.UText, ptr %patText, i32 0, i32 0
  store i32 878368812, ptr %35, align 8
  %36 = getelementptr inbounds %struct.UText, ptr %patText, i32 0, i32 3
  store i32 144, ptr %36, align 4
  %37 = load ptr, ptr %patBuf, align 8
  %38 = load i32, ptr %patternLength.addr, align 4
  %conv23 = sext i32 %38 to i64
  %39 = load ptr, ptr %status.addr, align 8
  %call24 = call ptr @utext_openUChars_75(ptr noundef %patText, ptr noundef %37, i64 noundef %conv23, ptr noundef %39)
  %40 = load ptr, ptr %pe.addr, align 8
  %cmp25 = icmp ne ptr %40, null
  br i1 %cmp25, label %if.then26, label %if.else

if.then26:                                        ; preds = %if.end19
  %41 = load i32, ptr %flags.addr, align 4
  %42 = load ptr, ptr %pe.addr, align 8
  %43 = load ptr, ptr %status.addr, align 8
  %call27 = call noundef ptr @_ZN6icu_7512RegexPattern7compileEP5UTextjR11UParseErrorR10UErrorCode(ptr noundef %patText, i32 noundef %41, ptr noundef nonnull align 4 dereferenceable(72) %42, ptr noundef nonnull align 4 dereferenceable(4) %43)
  %44 = load ptr, ptr %re, align 8
  %fPat = getelementptr inbounds %"struct.icu_75::RegularExpression", ptr %44, i32 0, i32 2
  store ptr %call27, ptr %fPat, align 8
  br label %if.end30

if.else:                                          ; preds = %if.end19
  %45 = load i32, ptr %flags.addr, align 4
  %46 = load ptr, ptr %status.addr, align 8
  %call28 = call noundef ptr @_ZN6icu_7512RegexPattern7compileEP5UTextjR10UErrorCode(ptr noundef %patText, i32 noundef %45, ptr noundef nonnull align 4 dereferenceable(4) %46)
  %47 = load ptr, ptr %re, align 8
  %fPat29 = getelementptr inbounds %"struct.icu_75::RegularExpression", ptr %47, i32 0, i32 2
  store ptr %call28, ptr %fPat29, align 8
  br label %if.end30

if.end30:                                         ; preds = %if.else, %if.then26
  %call31 = call ptr @utext_close_75(ptr noundef %patText)
  %48 = load ptr, ptr %status.addr, align 8
  %49 = load i32, ptr %48, align 4
  %call32 = call noundef signext i8 @_ZL9U_FAILURE10UErrorCode(i32 noundef %49)
  %tobool33 = icmp ne i8 %call32, 0
  br i1 %tobool33, label %if.then34, label %if.end35

if.then34:                                        ; preds = %if.end30
  br label %ErrorExit

if.end35:                                         ; preds = %if.end30
  %50 = load ptr, ptr %re, align 8
  %fPat36 = getelementptr inbounds %"struct.icu_75::RegularExpression", ptr %50, i32 0, i32 2
  %51 = load ptr, ptr %fPat36, align 8
  %52 = load ptr, ptr %status.addr, align 8
  %call37 = call noundef ptr @_ZNK6icu_7512RegexPattern7matcherER10UErrorCode(ptr noundef nonnull align 8 dereferenceable(200) %51, ptr noundef nonnull align 4 dereferenceable(4) %52)
  %53 = load ptr, ptr %re, align 8
  %fMatcher = getelementptr inbounds %"struct.icu_75::RegularExpression", ptr %53, i32 0, i32 7
  store ptr %call37, ptr %fMatcher, align 8
  %54 = load ptr, ptr %status.addr, align 8
  %55 = load i32, ptr %54, align 4
  %call38 = call noundef signext i8 @_ZL9U_SUCCESS10UErrorCode(i32 noundef %55)
  %tobool39 = icmp ne i8 %call38, 0
  br i1 %tobool39, label %if.then40, label %if.end41

if.then40:                                        ; preds = %if.end35
  %56 = load ptr, ptr %re, align 8
  store ptr %56, ptr %retval, align 8
  br label %return

if.end41:                                         ; preds = %if.end35
  br label %ErrorExit

ErrorExit:                                        ; preds = %if.end41, %if.then34
  %57 = load ptr, ptr %re, align 8
  %isnull42 = icmp eq ptr %57, null
  br i1 %isnull42, label %delete.end44, label %delete.notnull43

delete.notnull43:                                 ; preds = %ErrorExit
  call void @_ZN6icu_7517RegularExpressionD1Ev(ptr noundef nonnull align 8 dereferenceable(61) %57) #7
  call void @_ZN6icu_757UMemorydlEPv(ptr noundef %57) #7
  br label %delete.end44

delete.end44:                                     ; preds = %delete.notnull43, %ErrorExit
  store ptr null, ptr %retval, align 8
  br label %return

return:                                           ; preds = %delete.end44, %if.then40, %delete.end, %if.then4, %if.then
  %58 = load ptr, ptr %retval, align 8
  ret ptr %58

eh.resume:                                        ; preds = %cleanup.done
  %exn = load ptr, ptr %exn.slot, align 8
  %sel = load i32, ptr %ehselector.slot, align 4
  %lpad.val = insertvalue { ptr, i32 } poison, ptr %exn, 0
  %lpad.val45 = insertvalue { ptr, i32 } %lpad.val, i32 %sel, 1
  resume { ptr, i32 } %lpad.val45
}