; Function Attrs: mustprogress uwtable
define noundef ptr @uregex_open_75(ptr noundef %pattern, i32 noundef %patternLength, i32 noundef %flags, ptr noundef %pe, ptr noundef %status) local_unnamed_addr #5 personality ptr @__gxx_personality_v0 {
entry:
  %patText = alloca %struct.UText, align 8
  %0 = load i32, ptr %status, align 4
  %cmp.i = icmp slt i32 %0, 1
  br i1 %cmp.i, label %if.end, label %return

if.end:                                           ; preds = %entry
  %cmp = icmp eq ptr %pattern, null
  %cmp1 = icmp slt i32 %patternLength, -1
  %or.cond = or i1 %cmp, %cmp1
  %cmp3 = icmp eq i32 %patternLength, 0
  %or.cond1 = or i1 %cmp3, %or.cond
  br i1 %or.cond1, label %if.then4, label %if.end5

if.then4:                                         ; preds = %if.end
  store i32 1, ptr %status, align 4
  br label %return

if.end5:                                          ; preds = %if.end
  %cmp6 = icmp eq i32 %patternLength, -1
  br i1 %cmp6, label %if.then7, label %if.end9

if.then7:                                         ; preds = %if.end5
  %call8 = tail call i32 @u_strlen_75(ptr noundef nonnull %pattern)
  br label %if.end9

if.end9:                                          ; preds = %if.then7, %if.end5
  %actualPatLen.0 = phi i32 [ %call8, %if.then7 ], [ %patternLength, %if.end5 ]
  %call10 = tail call noundef ptr @_ZN6icu_757UMemorynwEm(i64 noundef 64) #10
  %new.isnull = icmp eq ptr %call10, null
  br i1 %new.isnull, label %new.cont, label %new.notnull

new.notnull:                                      ; preds = %if.end9
  invoke void @_ZN6icu_7517RegularExpressionC1Ev(ptr noundef nonnull align 8 dereferenceable(61) %call10)
          to label %new.cont unwind label %lpad

new.cont:                                         ; preds = %new.notnull, %if.end9
  %call11 = tail call noalias dereferenceable_or_null(4) ptr @uprv_malloc_75(i64 noundef 4) #12
  %add = add nsw i32 %actualPatLen.0, 1
  %conv = sext i32 %add to i64
  %mul = shl nsw i64 %conv, 1
  %call12 = tail call noalias ptr @uprv_malloc_75(i64 noundef %mul) #12
  %cmp15 = icmp eq ptr %call11, null
  %or.cond2 = or i1 %new.isnull, %cmp15
  %cmp17 = icmp eq ptr %call12, null
  %or.cond3 = select i1 %or.cond2, i1 true, i1 %cmp17
  br i1 %or.cond3, label %if.then18, label %if.end19

if.then18:                                        ; preds = %new.cont
  store i32 7, ptr %status, align 4
  br i1 %new.isnull, label %delete.end, label %delete.notnull

delete.notnull:                                   ; preds = %if.then18
  tail call void @_ZN6icu_7517RegularExpressionD1Ev(ptr noundef nonnull align 8 dereferenceable(61) %call10) #10
  tail call void @_ZN6icu_757UMemorydlEPv(ptr noundef nonnull %call10) #10
  br label %delete.end

delete.end:                                       ; preds = %delete.notnull, %if.then18
  tail call void @uprv_free_75(ptr noundef %call11)
  tail call void @uprv_free_75(ptr noundef %call12)
  br label %return

lpad:                                             ; preds = %new.notnull
  %1 = landingpad { ptr, i32 }
          cleanup
  tail call void @_ZN6icu_757UMemorydlEPv(ptr noundef nonnull %call10) #10
  resume { ptr, i32 } %1

if.end19:                                         ; preds = %new.cont
  %fPatRefCount = getelementptr inbounds i8, ptr %call10, i64 16
  store ptr %call11, ptr %fPatRefCount, align 8
  store atomic i32 1, ptr %call11 seq_cst, align 4
  %fPatString = getelementptr inbounds i8, ptr %call10, i64 24
  store ptr %call12, ptr %fPatString, align 8
  %fPatStringLen = getelementptr inbounds i8, ptr %call10, i64 32
  store i32 %patternLength, ptr %fPatStringLen, align 8
  %call22 = tail call ptr @u_memcpy_75(ptr noundef nonnull %call12, ptr noundef nonnull %pattern, i32 noundef %actualPatLen.0)
  %idxprom = sext i32 %actualPatLen.0 to i64
  %arrayidx = getelementptr inbounds i16, ptr %call12, i64 %idxprom
  store i16 0, ptr %arrayidx, align 2
  call void @llvm.memset.p0.i64(ptr noundef nonnull align 8 dereferenceable(144) %patText, i8 0, i64 144, i1 false)
  store i32 878368812, ptr %patText, align 8
  %2 = getelementptr inbounds i8, ptr %patText, i64 12
  store i32 144, ptr %2, align 4
  %conv23 = sext i32 %patternLength to i64
  %call24 = call ptr @utext_openUChars_75(ptr noundef nonnull %patText, ptr noundef nonnull %call12, i64 noundef %conv23, ptr noundef nonnull %status)
  %cmp25.not = icmp eq ptr %pe, null
  br i1 %cmp25.not, label %if.else, label %if.then26

if.then26:                                        ; preds = %if.end19
  %call27 = call noundef ptr @_ZN6icu_7512RegexPattern7compileEP5UTextjR11UParseErrorR10UErrorCode(ptr noundef nonnull %patText, i32 noundef %flags, ptr noundef nonnull align 4 dereferenceable(72) %pe, ptr noundef nonnull align 4 dereferenceable(4) %status)
  br label %if.end30

if.else:                                          ; preds = %if.end19
  %call28 = call noundef ptr @_ZN6icu_7512RegexPattern7compileEP5UTextjR10UErrorCode(ptr noundef nonnull %patText, i32 noundef %flags, ptr noundef nonnull align 4 dereferenceable(4) %status)
  br label %if.end30

if.end30:                                         ; preds = %if.else, %if.then26
  %call27.sink = phi ptr [ %call28, %if.else ], [ %call27, %if.then26 ]
  %3 = getelementptr inbounds i8, ptr %call10, i64 8
  store ptr %call27.sink, ptr %3, align 8
  %call31 = call ptr @utext_close_75(ptr noundef nonnull %patText)
  %4 = load i32, ptr %status, align 4
  %cmp.i41 = icmp slt i32 %4, 1
  br i1 %cmp.i41, label %if.end35, label %delete.notnull43

if.end35:                                         ; preds = %if.end30
  %5 = load ptr, ptr %3, align 8
  %call37 = call noundef ptr @_ZNK6icu_7512RegexPattern7matcherER10UErrorCode(ptr noundef nonnull align 8 dereferenceable(200) %5, ptr noundef nonnull align 4 dereferenceable(4) %status)
  %fMatcher = getelementptr inbounds i8, ptr %call10, i64 40
  store ptr %call37, ptr %fMatcher, align 8
  %6 = load i32, ptr %status, align 4
  %cmp.i43 = icmp sgt i32 %6, 0
  br i1 %cmp.i43, label %delete.notnull43, label %return

delete.notnull43:                                 ; preds = %if.end30, %if.end35
  call void @_ZN6icu_7517RegularExpressionD1Ev(ptr noundef nonnull align 8 dereferenceable(61) %call10) #10
  call void @_ZN6icu_757UMemorydlEPv(ptr noundef nonnull %call10) #10
  br label %return

return:                                           ; preds = %if.end35, %entry, %delete.notnull43, %delete.end, %if.then4
  %retval.0 = phi ptr [ null, %if.then4 ], [ null, %delete.end ], [ null, %delete.notnull43 ], [ null, %entry ], [ %call10, %if.end35 ]
  ret ptr %retval.0
}